(lp0
(lp1
(lp2
I1
aI40
aF40.0
aa(lp3
I-1
aI0
aI0
aa(lp4
I3
aI115
aF40.0
aa(lp5
I-1
aI0
aI0
aa(lp6
I4
aI190
aF40.0
aa(lp7
I-1
aI0
aI0
aa(lp8
I4
aI265
aF40.0
aa(lp9
I-1
aI0
aI0
aaa(lp10
(lp11
I-1
aI0
aI0
aa(lp12
I7
aI77
aF61.65063509461096
aa(lp13
I-1
aI0
aI0
aa(lp14
I7
aI152
aF61.65063509461096
aa(lp15
I-1
aI0
aI0
aa(lp16
I2
aI227
aF61.65063509461096
aa(lp17
I-1
aI0
aI0
aa(lp18
I4
aI302
aF61.65063509461096
aaa(lp19
(lp20
I4
aI40
aF83.30127018922192
aa(lp21
I-1
aI0
aI0
aa(lp22
I7
aI115
aF83.30127018922192
aa(lp23
I-1
aI0
aI0
aa(lp24
I4
aI190
aF83.30127018922192
aa(lp25
I-1
aI0
aI0
aa(lp26
I7
aI265
aF83.30127018922192
aa(lp27
I-1
aI0
aI0
aaa(lp28
(lp29
I-1
aI0
aI0
aa(lp30
I1
aI77
aF104.9519052838329
aa(lp31
I-1
aI0
aI0
aa(lp32
I2
aI152
aF104.9519052838329
aa(lp33
I-1
aI0
aI0
aa(lp34
I7
aI227
aF104.9519052838329
aa(lp35
I-1
aI0
aI0
aa(lp36
I4
aI302
aF104.9519052838329
aaa(lp37
(lp38
I1
aI40
aF126.60254037844386
aa(lp39
I-1
aI0
aI0
aa(lp40
I4
aI115
aF126.60254037844386
aa(lp41
I-1
aI0
aI0
aa(lp42
I1
aI190
aF126.60254037844386
aa(lp43
I-1
aI0
aI0
aa(lp44
I5
aI265
aF126.60254037844386
aa(lp45
I-1
aI0
aI0
aaa(lp46
(lp47
I-1
aI0
aI0
aa(lp48
I5
aI77
aF148.25317547305482
aa(lp49
I-1
aI0
aI0
aa(lp50
I2
aI152
aF148.25317547305482
aa(lp51
I-1
aI0
aI0
aa(lp52
I7
aI227
aF148.25317547305482
aa(lp53
I-1
aI0
aI0
aa(lp54
I7
aI302
aF148.25317547305482
aaa(lp55
(lp56
I1
aI40
aF169.9038105676658
aa(lp57
I-1
aI0
aI0
aa(lp58
I4
aI115
aF169.9038105676658
aa(lp59
I-1
aI0
aI0
aa(lp60
I6
aI190
aF169.9038105676658
aa(lp61
I-1
aI0
aI0
aa(lp62
I3
aI265
aF169.9038105676658
aa(lp63
I-1
aI0
aI0
aaa(lp64
(lp65
I-1
aI0
aI0
aa(lp66
I7
aI77
aF191.55444566227675
aa(lp67
I-1
aI0
aI0
aa(lp68
I3
aI152
aF191.55444566227675
aa(lp69
I-1
aI0
aI0
aa(lp70
I3
aI227
aF191.55444566227675
aa(lp71
I-1
aI0
aI0
aa(lp72
I3
aI302
aF191.55444566227675
aaa(lp73
(lp74
I2
aI40
aF213.20508075688772
aa(lp75
I-1
aI0
aI0
aa(lp76
I1
aI115
aF213.20508075688772
aa(lp77
I-1
aI0
aI0
aa(lp78
I5
aI190
aF213.20508075688772
aa(lp79
I-1
aI0
aI0
aa(lp80
I7
aI265
aF213.20508075688772
aa(lp81
I-1
aI0
aI0
aaa(lp82
(lp83
I-1
aI0
aI0
aa(lp84
I5
aI77
aF234.85571585149867
aa(lp85
I-1
aI0
aI0
aa(lp86
I3
aI152
aF234.85571585149867
aa(lp87
I-1
aI0
aI0
aa(lp88
I5
aI227
aF234.85571585149867
aa(lp89
I-1
aI0
aI0
aa(lp90
I7
aI302
aF234.85571585149867
aaa(lp91
(lp92
I3
aI40
aF256.50635094610965
aa(lp93
I-1
aI0
aI0
aa(lp94
I7
aI115
aF256.50635094610965
aa(lp95
I-1
aI0
aI0
aa(lp96
I5
aI190
aF256.50635094610965
aa(lp97
I-1
aI0
aI0
aa(lp98
I7
aI265
aF256.50635094610965
aa(lp99
I-1
aI0
aI0
aaa(lp100
(lp101
I-1
aI0
aI0
aa(lp102
I1
aI77
aF278.15698604072065
aa(lp103
I-1
aI0
aI0
aa(lp104
I5
aI152
aF278.15698604072065
aa(lp105
I-1
aI0
aI0
aa(lp106
I5
aI227
aF278.15698604072065
aa(lp107
I-1
aI0
aI0
aa(lp108
I4
aI302
aF278.15698604072065
aaa(lp109
(lp110
I6
aI40
aF299.8076211353316
aa(lp111
I-1
aI0
aI0
aa(lp112
I5
aI115
aF299.8076211353316
aa(lp113
I-1
aI0
aI0
aa(lp114
I1
aI190
aF299.8076211353316
aa(lp115
I-1
aI0
aI0
aa(lp116
I5
aI265
aF299.8076211353316
aa(lp117
I-1
aI0
aI0
aaa(lp118
(lp119
I-1
aI0
aI0
aa(lp120
I1
aI77
aF321.45825622994255
aa(lp121
I-1
aI0
aI0
aa(lp122
I3
aI152
aF321.45825622994255
aa(lp123
I-1
aI0
aI0
aa(lp124
I6
aI227
aF321.45825622994255
aa(lp125
I-1
aI0
aI0
aa(lp126
I3
aI302
aF321.45825622994255
aaa(lp127
(lp128
I1
aI40
aF343.1088913245535
aa(lp129
I-1
aI0
aI0
aa(lp130
I6
aI115
aF343.1088913245535
aa(lp131
I-1
aI0
aI0
aa(lp132
I1
aI190
aF343.1088913245535
aa(lp133
I-1
aI0
aI0
aa(lp134
I2
aI265
aF343.1088913245535
aa(lp135
I-1
aI0
aI0
aaa(lp136
(lp137
I-1
aI0
aI0
aa(lp138
I3
aI77
aF364.7595264191645
aa(lp139
I-1
aI0
aI0
aa(lp140
I5
aI152
aF364.7595264191645
aa(lp141
I-1
aI0
aI0
aa(lp142
I1
aI227
aF364.7595264191645
aa(lp143
I-1
aI0
aI0
aa(lp144
I3
aI302
aF364.7595264191645
aaa(lp145
(lp146
I1
aI40
aF386.41016151377545
aa(lp147
I-1
aI0
aI0
aa(lp148
I5
aI115
aF386.41016151377545
aa(lp149
I-1
aI0
aI0
aa(lp150
I1
aI190
aF386.41016151377545
aa(lp151
I-1
aI0
aI0
aa(lp152
I5
aI265
aF386.41016151377545
aa(lp153
I-1
aI0
aI0
aaa(lp154
(lp155
I-1
aI0
aI0
aa(lp156
I5
aI77
aF408.0607966083864
aa(lp157
I-1
aI0
aI0
aa(lp158
I4
aI152
aF408.0607966083864
aa(lp159
I-1
aI0
aI0
aa(lp160
I1
aI227
aF408.0607966083864
aa(lp161
I-1
aI0
aI0
aa(lp162
I4
aI302
aF408.0607966083864
aaa(lp163
(lp164
I6
aI40
aF429.71143170299734
aa(lp165
I-1
aI0
aI0
aa(lp166
I3
aI115
aF429.71143170299734
aa(lp167
I-1
aI0
aI0
aa(lp168
I3
aI190
aF429.71143170299734
aa(lp169
I-1
aI0
aI0
aa(lp170
I2
aI265
aF429.71143170299734
aa(lp171
I-1
aI0
aI0
aaa(lp172
(lp173
I-1
aI0
aI0
aa(lp174
I2
aI77
aF451.36206679760835
aa(lp175
I-1
aI0
aI0
aa(lp176
I4
aI152
aF451.36206679760835
aa(lp177
I-1
aI0
aI0
aa(lp178
I2
aI227
aF451.36206679760835
aa(lp179
I-1
aI0
aI0
aa(lp180
I5
aI302
aF451.36206679760835
aaa.